; ModuleID = '22/966.c'
source_filename = "22/966.c"
target datalayout = "e-m:e-p270:32:32-p271:32:32-p272:64:64-i64:64-f80:128-n8:16:32:64-S128"
target triple = "x86_64-pc-linux-gnu"

@.str = private unnamed_addr constant [4 x i8] c"%d,\00", align 1
@.str.1 = private unnamed_addr constant [3 x i8] c"No\00", align 1
@.str.2 = private unnamed_addr constant [3 x i8] c"%d\00", align 1

; Function Attrs: noinline nounwind uwtable
define dso_local i32 @main() #0 {
  %1 = alloca i32, align 4
  %2 = alloca i32, align 4
  %3 = alloca i32, align 4
  %4 = alloca i32, align 4
  store i32 0, i32* %1, align 4
  store i32 0, i32* %3, align 4
  store i32 0, i32* %4, align 4
  br label %5

5:                                                ; preds = %27, %0
  %6 = call i32 (i8*, ...) @__isoc99_scanf(i8* getelementptr inbounds ([4 x i8], [4 x i8]* @.str, i64 0, i64 0), i32* %2)
  %7 = icmp ne i32 %6, -1
  br i1 %7, label %8, label %28

8:                                                ; preds = %5
  %9 = load i32, i32* %2, align 4
  %10 = load i32, i32* %3, align 4
  %11 = icmp sgt i32 %9, %10
  br i1 %11, label %12, label %15

12:                                               ; preds = %8
  %13 = load i32, i32* %3, align 4
  store i32 %13, i32* %4, align 4
  %14 = load i32, i32* %2, align 4
  store i32 %14, i32* %3, align 4
  br label %27

15:                                               ; preds = %8
  %16 = load i32, i32* %2, align 4
  %17 = load i32, i32* %3, align 4
  %18 = icmp slt i32 %16, %17
  br i1 %18, label %19, label %26

19:                                               ; preds = %15
  %20 = load i32, i32* %2, align 4
  %21 = load i32, i32* %4, align 4
  %22 = icmp sgt i32 %20, %21
  br i1 %22, label %23, label %25

23:                                               ; preds = %19
  %24 = load i32, i32* %2, align 4
  store i32 %24, i32* %4, align 4
  br label %25

25:                                               ; preds = %23, %19
  br label %26

26:                                               ; preds = %25, %15
  br label %27

27:                                               ; preds = %26, %12
  br label %5

28:                                               ; preds = %5
  %29 = load i32, i32* %4, align 4
  %30 = icmp eq i32 %29, 0
  br i1 %30, label %31, label %33

31:                                               ; preds = %28
  %32 = call i32 (i8*, ...) @printf(i8* getelementptr inbounds ([3 x i8], [3 x i8]* @.str.1, i64 0, i64 0))
  br label %36

33:                                               ; preds = %28
  %34 = load i32, i32* %4, align 4
  %35 = call i32 (i8*, ...) @printf(i8* getelementptr inbounds ([3 x i8], [3 x i8]* @.str.2, i64 0, i64 0), i32 %34)
  br label %36

36:                                               ; preds = %33, %31
  %37 = load i32, i32* %1, align 4
  ret i32 %37
}

declare dso_local i32 @__isoc99_scanf(i8*, ...) #1

declare dso_local i32 @printf(i8*, ...) #1


!llvm.module.flags = !{!0}
!llvm.ident = !{!1}

!0 = !{i32 1, !"wchar_size", i32 4}
!1 = !{!"clang version 10.0.0-4ubuntu1 "}
